; ModuleID = '38/1693.c'
source_filename = "38/1693.c"
target datalayout = "e-m:e-p270:32:32-p271:32:32-p272:64:64-i64:64-f80:128-n8:16:32:64-S128"
target triple = "x86_64-pc-linux-gnu"

@.str = private unnamed_addr constant [3 x i8] c"%d\00", align 1
@.str.1 = private unnamed_addr constant [4 x i8] c"%lf\00", align 1
@.str.2 = private unnamed_addr constant [7 x i8] c"%.5lf\0A\00", align 1

; Function Attrs: noinline nounwind uwtable
define dso_local i32 @main() #0 {
  %1 = alloca i32, align 4
  %2 = alloca i32, align 4
  %3 = alloca i32, align 4
  %4 = alloca i32, align 4
  %5 = alloca i32*, align 8
  %6 = alloca i32, align 4
  %7 = alloca [100 x double], align 16
  %8 = alloca double, align 8
  %9 = alloca double, align 8
  %10 = alloca double, align 8
  %11 = alloca double, align 8
  store i32 0, i32* %1, align 4
  %12 = call i32 (i8*, ...) @__isoc99_scanf(i8* getelementptr inbounds ([3 x i8], [3 x i8]* @.str, i64 0, i64 0), i32* %2)
  %13 = load i32, i32* %2, align 4
  %14 = sext i32 %13 to i64
  %15 = mul i64 8, %14
  %16 = call noalias i8* @malloc(i64 %15) #3
  %17 = bitcast i8* %16 to i32*
  store i32* %17, i32** %5, align 8
  store i32 0, i32* %4, align 4
  br label %18

18:                                               ; preds = %78, %0
  %19 = load i32, i32* %4, align 4
  %20 = load i32, i32* %2, align 4
  %21 = icmp slt i32 %19, %20
  br i1 %21, label %22, label %81

22:                                               ; preds = %18
  store double 0.000000e+00, double* %9, align 8
  %23 = call i32 (i8*, ...) @__isoc99_scanf(i8* getelementptr inbounds ([3 x i8], [3 x i8]* @.str, i64 0, i64 0), i32* %3)
  store i32 0, i32* %6, align 4
  br label %24

24:                                               ; preds = %39, %22
  %25 = load i32, i32* %6, align 4
  %26 = load i32, i32* %3, align 4
  %27 = icmp slt i32 %25, %26
  br i1 %27, label %28, label %42

28:                                               ; preds = %24
  %29 = load i32, i32* %6, align 4
  %30 = sext i32 %29 to i64
  %31 = getelementptr inbounds [100 x double], [100 x double]* %7, i64 0, i64 %30
  %32 = call i32 (i8*, ...) @__isoc99_scanf(i8* getelementptr inbounds ([4 x i8], [4 x i8]* @.str.1, i64 0, i64 0), double* %31)
  %33 = load double, double* %9, align 8
  %34 = load i32, i32* %6, align 4
  %35 = sext i32 %34 to i64
  %36 = getelementptr inbounds [100 x double], [100 x double]* %7, i64 0, i64 %35
  %37 = load double, double* %36, align 8
  %38 = fadd double %33, %37
  store double %38, double* %9, align 8
  br label %39

39:                                               ; preds = %28
  %40 = load i32, i32* %6, align 4
  %41 = add nsw i32 %40, 1
  store i32 %41, i32* %6, align 4
  br label %24

42:                                               ; preds = %24
  %43 = load double, double* %9, align 8
  %44 = load i32, i32* %3, align 4
  %45 = sitofp i32 %44 to double
  %46 = fdiv double %43, %45
  store double %46, double* %8, align 8
  store double 0.000000e+00, double* %10, align 8
  store i32 0, i32* %6, align 4
  br label %47

47:                                               ; preds = %67, %42
  %48 = load i32, i32* %6, align 4
  %49 = load i32, i32* %3, align 4
  %50 = icmp slt i32 %48, %49
  br i1 %50, label %51, label %70

51:                                               ; preds = %47
  %52 = load double, double* %10, align 8
  %53 = load i32, i32* %6, align 4
  %54 = sext i32 %53 to i64
  %55 = getelementptr inbounds [100 x double], [100 x double]* %7, i64 0, i64 %54
  %56 = load double, double* %55, align 8
  %57 = load double, double* %8, align 8
  %58 = fsub double %56, %57
  %59 = load i32, i32* %6, align 4
  %60 = sext i32 %59 to i64
  %61 = getelementptr inbounds [100 x double], [100 x double]* %7, i64 0, i64 %60
  %62 = load double, double* %61, align 8
  %63 = load double, double* %8, align 8
  %64 = fsub double %62, %63
  %65 = fmul double %58, %64
  %66 = fadd double %52, %65
  store double %66, double* %10, align 8
  br label %67

67:                                               ; preds = %51
  %68 = load i32, i32* %6, align 4
  %69 = add nsw i32 %68, 1
  store i32 %69, i32* %6, align 4
  br label %47

70:                                               ; preds = %47
  %71 = load double, double* %10, align 8
  %72 = load i32, i32* %3, align 4
  %73 = sitofp i32 %72 to double
  %74 = fdiv double %71, %73
  %75 = call double @sqrt(double %74) #3
  store double %75, double* %11, align 8
  %76 = load double, double* %11, align 8
  %77 = call i32 (i8*, ...) @printf(i8* getelementptr inbounds ([7 x i8], [7 x i8]* @.str.2, i64 0, i64 0), double %76)
  br label %78

78:                                               ; preds = %70
  %79 = load i32, i32* %4, align 4
  %80 = add nsw i32 %79, 1
  store i32 %80, i32* %4, align 4
  br label %18

81:                                               ; preds = %18
  %82 = load i32*, i32** %5, align 8
  %83 = bitcast i32* %82 to i8*
  call void @free(i8* %83) #3
  ret i32 0
}

declare dso_local i32 @__isoc99_scanf(i8*, ...) #1

; Function Attrs: nounwind
declare dso_local noalias i8* @malloc(i64) #2

; Function Attrs: nounwind
declare dso_local double @sqrt(double) #2

declare dso_local i32 @printf(i8*, ...) #1

; Function Attrs: nounwind
declare dso_local void @free(i8*) #2


!llvm.module.flags = !{!0}
!llvm.ident = !{!1}

!0 = !{i32 1, !"wchar_size", i32 4}
!1 = !{!"clang version 10.0.0-4ubuntu1 "}
